; Function Attrs: mustprogress null_pointer_is_valid sspstrong uwtable
define noundef ptr @_ZN15RtpPlayerDialog16findItemByCoordsE6QPoint(ptr noundef readonly align 8 captures(none) dereferenceable_or_null(472) %0, i64 %1) local_unnamed_addr #0 align 2 {
  %3 = alloca %class.QPointF, align 8
  %.sroa.0.0.extract.trunc = trunc i64 %1 to i32
  %.sroa.2.0.extract.shift = lshr i64 %1, 32
  %.sroa.2.0.extract.trunc = trunc nuw i64 %.sroa.2.0.extract.shift to i32
  %4 = getelementptr inbounds nuw i8, ptr %0, i64 144
  %5 = load ptr, ptr %4, align 8
  %6 = getelementptr inbounds nuw i8, ptr %5, i64 312
  %7 = load ptr, ptr %6, align 8
  call void @llvm.lifetime.start.p0(i64 16, ptr nonnull %3) #26
  %8 = sitofp i32 %.sroa.0.0.extract.trunc to double
  store double %8, ptr %3, align 8
  %9 = getelementptr inbounds nuw i8, ptr %3, i64 8
  %10 = sitofp i32 %.sroa.2.0.extract.trunc to double
  store double %10, ptr %9, align 8
  %11 = call noundef ptr @_ZNK11QCustomPlot11plottableAtERK7QPointFbPi(ptr noundef align 8 dereferenceable_or_null(513) %7, ptr noundef nonnull align 8 dereferenceable(16) %3, i1 noundef zeroext false, ptr noundef null)
  call void @llvm.lifetime.end.p0(i64 16, ptr nonnull %3) #26
  %.not = icmp eq ptr %11, null
  br i1 %.not, label %14, label %12

12:                                               ; preds = %2
  %13 = call noundef ptr @_ZN15RtpPlayerDialog8findItemEP20QCPAbstractPlottable(ptr noundef align 8 dereferenceable_or_null(472) %0, ptr noundef nonnull %11)
  br label %14

14:                                               ; preds = %2, %12
  %.0 = phi ptr [ %13, %12 ], [ null, %2 ]
  ret ptr %.0
}